target datalayout = "e-m:e-p270:32:32-p271:32:32-p272:64:64-i64:64-i128:128-f80:128-n8:16:32:64-S128"
target triple = "x86_64-pc-linux-gnu"

%struct._object = type { %union.anon, ptr }
%union.anon = type { i64 }
%struct.typevarobject = type { %struct._object, ptr, ptr, ptr, ptr, ptr, ptr, ptr, i8, i8, i8 }

; Function Attrs: inlinehint nounwind uwtable
define internal ptr @_Py_TYPE(ptr noundef %0) #3 {
  %2 = alloca ptr, align 8
  store ptr %0, ptr %2, align 8, !tbaa !4
  %3 = load ptr, ptr %2, align 8, !tbaa !4
  %4 = getelementptr inbounds nuw %struct._object, ptr %3, i32 0, i32 1
  %5 = load ptr, ptr %4, align 8, !tbaa !26
  ret ptr %5
}

; Function Attrs: nounwind uwtable
define internal i32 @typevar_traverse(ptr noundef %0, ptr noundef %1, ptr noundef %2) #0 {
  %4 = alloca i32, align 4
  %5 = alloca ptr, align 8
  %6 = alloca ptr, align 8
  %7 = alloca ptr, align 8
  %8 = alloca i32, align 4
  %9 = alloca i32, align 4
  %10 = alloca ptr, align 8
  %11 = alloca i32, align 4
  %12 = alloca i32, align 4
  %13 = alloca i32, align 4
  %14 = alloca i32, align 4
  %15 = alloca i32, align 4
  %16 = alloca i32, align 4
  store ptr %0, ptr %5, align 8, !tbaa !4
  store ptr %1, ptr %6, align 8, !tbaa !30
  store ptr %2, ptr %7, align 8, !tbaa !30
  br label %17

17:                                               ; preds = %3
  %18 = load ptr, ptr %5, align 8, !tbaa !4
  %19 = call ptr @_Py_TYPE(ptr noundef %18)
  %20 = icmp ne ptr %19, null
  br i1 %20, label %21, label %35

21:                                               ; preds = %17
  call void @llvm.lifetime.start.p0(i64 4, ptr %8) #6
  %22 = load ptr, ptr %6, align 8, !tbaa !30
  %23 = load ptr, ptr %5, align 8, !tbaa !4
  %24 = call ptr @_Py_TYPE(ptr noundef %23)
  %25 = load ptr, ptr %7, align 8, !tbaa !30
  %26 = call i32 %22(ptr noundef %24, ptr noundef %25)
  store i32 %26, ptr %8, align 4, !tbaa !13
  %27 = load i32, ptr %8, align 4, !tbaa !13
  %28 = icmp ne i32 %27, 0
  br i1 %28, label %29, label %31

29:                                               ; preds = %21
  %30 = load i32, ptr %8, align 4, !tbaa !13
  store i32 %30, ptr %4, align 4
  store i32 1, ptr %9, align 4
  br label %32

31:                                               ; preds = %21
  store i32 0, ptr %9, align 4
  br label %32

32:                                               ; preds = %31, %29
  call void @llvm.lifetime.end.p0(i64 4, ptr %8) #6
  %33 = load i32, ptr %9, align 4
  switch i32 %33, label %183 [
    i32 0, label %34
    i32 1, label %181
  ]

34:                                               ; preds = %32
  br label %35

35:                                               ; preds = %34, %17
  br label %36

36:                                               ; preds = %35
  call void @llvm.lifetime.start.p0(i64 8, ptr %10) #6
  %37 = load ptr, ptr %5, align 8, !tbaa !4
  store ptr %37, ptr %10, align 8, !tbaa !30
  br label %38

38:                                               ; preds = %36
  %39 = load ptr, ptr %10, align 8, !tbaa !30
  %40 = getelementptr inbounds nuw %struct.typevarobject, ptr %39, i32 0, i32 2
  %41 = load ptr, ptr %40, align 8, !tbaa !116
  %42 = icmp ne ptr %41, null
  br i1 %42, label %43, label %58

43:                                               ; preds = %38
  call void @llvm.lifetime.start.p0(i64 4, ptr %11) #6
  %44 = load ptr, ptr %6, align 8, !tbaa !30
  %45 = load ptr, ptr %10, align 8, !tbaa !30
  %46 = getelementptr inbounds nuw %struct.typevarobject, ptr %45, i32 0, i32 2
  %47 = load ptr, ptr %46, align 8, !tbaa !116
  %48 = load ptr, ptr %7, align 8, !tbaa !30
  %49 = call i32 %44(ptr noundef %47, ptr noundef %48)
  store i32 %49, ptr %11, align 4, !tbaa !13
  %50 = load i32, ptr %11, align 4, !tbaa !13
  %51 = icmp ne i32 %50, 0
  br i1 %51, label %52, label %54

52:                                               ; preds = %43
  %53 = load i32, ptr %11, align 4, !tbaa !13
  store i32 %53, ptr %4, align 4
  store i32 1, ptr %9, align 4
  br label %55

54:                                               ; preds = %43
  store i32 0, ptr %9, align 4
  br label %55

55:                                               ; preds = %54, %52
  call void @llvm.lifetime.end.p0(i64 4, ptr %11) #6
  %56 = load i32, ptr %9, align 4
  switch i32 %56, label %180 [
    i32 0, label %57
  ]

57:                                               ; preds = %55
  br label %58

58:                                               ; preds = %57, %38
  br label %59

59:                                               ; preds = %58
  br label %60

60:                                               ; preds = %59
  br label %61

61:                                               ; preds = %60
  %62 = load ptr, ptr %10, align 8, !tbaa !30
  %63 = getelementptr inbounds nuw %struct.typevarobject, ptr %62, i32 0, i32 3
  %64 = load ptr, ptr %63, align 8, !tbaa !117
  %65 = icmp ne ptr %64, null
  br i1 %65, label %66, label %81

66:                                               ; preds = %61
  call void @llvm.lifetime.start.p0(i64 4, ptr %12) #6
  %67 = load ptr, ptr %6, align 8, !tbaa !30
  %68 = load ptr, ptr %10, align 8, !tbaa !30
  %69 = getelementptr inbounds nuw %struct.typevarobject, ptr %68, i32 0, i32 3
  %70 = load ptr, ptr %69, align 8, !tbaa !117
  %71 = load ptr, ptr %7, align 8, !tbaa !30
  %72 = call i32 %67(ptr noundef %70, ptr noundef %71)
  store i32 %72, ptr %12, align 4, !tbaa !13
  %73 = load i32, ptr %12, align 4, !tbaa !13
  %74 = icmp ne i32 %73, 0
  br i1 %74, label %75, label %77

75:                                               ; preds = %66
  %76 = load i32, ptr %12, align 4, !tbaa !13
  store i32 %76, ptr %4, align 4
  store i32 1, ptr %9, align 4
  br label %78

77:                                               ; preds = %66
  store i32 0, ptr %9, align 4
  br label %78

78:                                               ; preds = %77, %75
  call void @llvm.lifetime.end.p0(i64 4, ptr %12) #6
  %79 = load i32, ptr %9, align 4
  switch i32 %79, label %180 [
    i32 0, label %80
  ]

80:                                               ; preds = %78
  br label %81

81:                                               ; preds = %80, %61
  br label %82

82:                                               ; preds = %81
  br label %83

83:                                               ; preds = %82
  br label %84

84:                                               ; preds = %83
  %85 = load ptr, ptr %10, align 8, !tbaa !30
  %86 = getelementptr inbounds nuw %struct.typevarobject, ptr %85, i32 0, i32 4
  %87 = load ptr, ptr %86, align 8, !tbaa !118
  %88 = icmp ne ptr %87, null
  br i1 %88, label %89, label %104

89:                                               ; preds = %84
  call void @llvm.lifetime.start.p0(i64 4, ptr %13) #6
  %90 = load ptr, ptr %6, align 8, !tbaa !30
  %91 = load ptr, ptr %10, align 8, !tbaa !30
  %92 = getelementptr inbounds nuw %struct.typevarobject, ptr %91, i32 0, i32 4
  %93 = load ptr, ptr %92, align 8, !tbaa !118
  %94 = load ptr, ptr %7, align 8, !tbaa !30
  %95 = call i32 %90(ptr noundef %93, ptr noundef %94)
  store i32 %95, ptr %13, align 4, !tbaa !13
  %96 = load i32, ptr %13, align 4, !tbaa !13
  %97 = icmp ne i32 %96, 0
  br i1 %97, label %98, label %100

98:                                               ; preds = %89
  %99 = load i32, ptr %13, align 4, !tbaa !13
  store i32 %99, ptr %4, align 4
  store i32 1, ptr %9, align 4
  br label %101

100:                                              ; preds = %89
  store i32 0, ptr %9, align 4
  br label %101

101:                                              ; preds = %100, %98
  call void @llvm.lifetime.end.p0(i64 4, ptr %13) #6
  %102 = load i32, ptr %9, align 4
  switch i32 %102, label %180 [
    i32 0, label %103
  ]

103:                                              ; preds = %101
  br label %104

104:                                              ; preds = %103, %84
  br label %105

105:                                              ; preds = %104
  br label %106

106:                                              ; preds = %105
  br label %107

107:                                              ; preds = %106
  %108 = load ptr, ptr %10, align 8, !tbaa !30
  %109 = getelementptr inbounds nuw %struct.typevarobject, ptr %108, i32 0, i32 5
  %110 = load ptr, ptr %109, align 8, !tbaa !119
  %111 = icmp ne ptr %110, null
  br i1 %111, label %112, label %127

112:                                              ; preds = %107
  call void @llvm.lifetime.start.p0(i64 4, ptr %14) #6
  %113 = load ptr, ptr %6, align 8, !tbaa !30
  %114 = load ptr, ptr %10, align 8, !tbaa !30
  %115 = getelementptr inbounds nuw %struct.typevarobject, ptr %114, i32 0, i32 5
  %116 = load ptr, ptr %115, align 8, !tbaa !119
  %117 = load ptr, ptr %7, align 8, !tbaa !30
  %118 = call i32 %113(ptr noundef %116, ptr noundef %117)
  store i32 %118, ptr %14, align 4, !tbaa !13
  %119 = load i32, ptr %14, align 4, !tbaa !13
  %120 = icmp ne i32 %119, 0
  br i1 %120, label %121, label %123

121:                                              ; preds = %112
  %122 = load i32, ptr %14, align 4, !tbaa !13
  store i32 %122, ptr %4, align 4
  store i32 1, ptr %9, align 4
  br label %124

123:                                              ; preds = %112
  store i32 0, ptr %9, align 4
  br label %124

124:                                              ; preds = %123, %121
  call void @llvm.lifetime.end.p0(i64 4, ptr %14) #6
  %125 = load i32, ptr %9, align 4
  switch i32 %125, label %180 [
    i32 0, label %126
  ]

126:                                              ; preds = %124
  br label %127

127:                                              ; preds = %126, %107
  br label %128

128:                                              ; preds = %127
  br label %129

129:                                              ; preds = %128
  br label %130

130:                                              ; preds = %129
  %131 = load ptr, ptr %10, align 8, !tbaa !30
  %132 = getelementptr inbounds nuw %struct.typevarobject, ptr %131, i32 0, i32 6
  %133 = load ptr, ptr %132, align 8, !tbaa !120
  %134 = icmp ne ptr %133, null
  br i1 %134, label %135, label %150

135:                                              ; preds = %130
  call void @llvm.lifetime.start.p0(i64 4, ptr %15) #6
  %136 = load ptr, ptr %6, align 8, !tbaa !30
  %137 = load ptr, ptr %10, align 8, !tbaa !30
  %138 = getelementptr inbounds nuw %struct.typevarobject, ptr %137, i32 0, i32 6
  %139 = load ptr, ptr %138, align 8, !tbaa !120
  %140 = load ptr, ptr %7, align 8, !tbaa !30
  %141 = call i32 %136(ptr noundef %139, ptr noundef %140)
  store i32 %141, ptr %15, align 4, !tbaa !13
  %142 = load i32, ptr %15, align 4, !tbaa !13
  %143 = icmp ne i32 %142, 0
  br i1 %143, label %144, label %146

144:                                              ; preds = %135
  %145 = load i32, ptr %15, align 4, !tbaa !13
  store i32 %145, ptr %4, align 4
  store i32 1, ptr %9, align 4
  br label %147

146:                                              ; preds = %135
  store i32 0, ptr %9, align 4
  br label %147

147:                                              ; preds = %146, %144
  call void @llvm.lifetime.end.p0(i64 4, ptr %15) #6
  %148 = load i32, ptr %9, align 4
  switch i32 %148, label %180 [
    i32 0, label %149
  ]

149:                                              ; preds = %147
  br label %150

150:                                              ; preds = %149, %130
  br label %151

151:                                              ; preds = %150
  br label %152

152:                                              ; preds = %151
  br label %153

153:                                              ; preds = %152
  %154 = load ptr, ptr %10, align 8, !tbaa !30
  %155 = getelementptr inbounds nuw %struct.typevarobject, ptr %154, i32 0, i32 7
  %156 = load ptr, ptr %155, align 8, !tbaa !121
  %157 = icmp ne ptr %156, null
  br i1 %157, label %158, label %173

158:                                              ; preds = %153
  call void @llvm.lifetime.start.p0(i64 4, ptr %16) #6
  %159 = load ptr, ptr %6, align 8, !tbaa !30
  %160 = load ptr, ptr %10, align 8, !tbaa !30
  %161 = getelementptr inbounds nuw %struct.typevarobject, ptr %160, i32 0, i32 7
  %162 = load ptr, ptr %161, align 8, !tbaa !121
  %163 = load ptr, ptr %7, align 8, !tbaa !30
  %164 = call i32 %159(ptr noundef %162, ptr noundef %163)
  store i32 %164, ptr %16, align 4, !tbaa !13
  %165 = load i32, ptr %16, align 4, !tbaa !13
  %166 = icmp ne i32 %165, 0
  br i1 %166, label %167, label %169

167:                                              ; preds = %158
  %168 = load i32, ptr %16, align 4, !tbaa !13
  store i32 %168, ptr %4, align 4
  store i32 1, ptr %9, align 4
  br label %170

169:                                              ; preds = %158
  store i32 0, ptr %9, align 4
  br label %170

170:                                              ; preds = %169, %167
  call void @llvm.lifetime.end.p0(i64 4, ptr %16) #6
  %171 = load i32, ptr %9, align 4
  switch i32 %171, label %180 [
    i32 0, label %172
  ]

172:                                              ; preds = %170
  br label %173

173:                                              ; preds = %172, %153
  br label %174

174:                                              ; preds = %173
  br label %175

175:                                              ; preds = %174
  %176 = load ptr, ptr %5, align 8, !tbaa !4
  %177 = load ptr, ptr %6, align 8, !tbaa !30
  %178 = load ptr, ptr %7, align 8, !tbaa !30
  %179 = call i32 @PyObject_VisitManagedDict(ptr noundef %176, ptr noundef %177, ptr noundef %178)
  store i32 0, ptr %4, align 4
  store i32 1, ptr %9, align 4
  br label %180

180:                                              ; preds = %175, %170, %147, %124, %101, %78, %55
  call void @llvm.lifetime.end.p0(i64 8, ptr %10) #6
  br label %181

181:                                              ; preds = %180, %32
  %182 = load i32, ptr %4, align 4
  ret i32 %182

183:                                              ; preds = %32
  unreachable
}