; Function Attrs: nounwind uwtable
define internal i32 @typevar_traverse(ptr noundef %0, ptr noundef %1, ptr noundef %2) #0 {
  %4 = getelementptr i8, ptr %0, i64 8
  %.val89 = load ptr, ptr %4, align 8, !tbaa !18
  %.not = icmp eq ptr %.val89, null
  br i1 %.not, label %7, label %5

5:                                                ; preds = %3
  %6 = tail call i32 %1(ptr noundef nonnull %.val89, ptr noundef %2) #8
  %.not76.not = icmp eq i32 %6, 0
  br i1 %.not76.not, label %7, label %39

7:                                                ; preds = %5, %3
  %8 = getelementptr inbounds nuw i8, ptr %0, i64 24
  %9 = load ptr, ptr %8, align 8, !tbaa !120
  %.not77 = icmp eq ptr %9, null
  br i1 %.not77, label %12, label %10

10:                                               ; preds = %7
  %11 = tail call i32 %1(ptr noundef nonnull %9, ptr noundef %2) #8
  %.not78 = icmp eq i32 %11, 0
  br i1 %.not78, label %12, label %39

12:                                               ; preds = %7, %10
  %13 = getelementptr inbounds nuw i8, ptr %0, i64 32
  %14 = load ptr, ptr %13, align 8, !tbaa !121
  %.not79 = icmp eq ptr %14, null
  br i1 %.not79, label %17, label %15

15:                                               ; preds = %12
  %16 = tail call i32 %1(ptr noundef nonnull %14, ptr noundef %2) #8
  %.not80 = icmp eq i32 %16, 0
  br i1 %.not80, label %17, label %39

17:                                               ; preds = %12, %15
  %18 = getelementptr inbounds nuw i8, ptr %0, i64 40
  %19 = load ptr, ptr %18, align 8, !tbaa !122
  %.not81 = icmp eq ptr %19, null
  br i1 %.not81, label %22, label %20

20:                                               ; preds = %17
  %21 = tail call i32 %1(ptr noundef nonnull %19, ptr noundef %2) #8
  %.not82 = icmp eq i32 %21, 0
  br i1 %.not82, label %22, label %39

22:                                               ; preds = %17, %20
  %23 = getelementptr inbounds nuw i8, ptr %0, i64 48
  %24 = load ptr, ptr %23, align 8, !tbaa !123
  %.not83 = icmp eq ptr %24, null
  br i1 %.not83, label %27, label %25

25:                                               ; preds = %22
  %26 = tail call i32 %1(ptr noundef nonnull %24, ptr noundef %2) #8
  %.not84 = icmp eq i32 %26, 0
  br i1 %.not84, label %27, label %39

27:                                               ; preds = %22, %25
  %28 = getelementptr inbounds nuw i8, ptr %0, i64 56
  %29 = load ptr, ptr %28, align 8, !tbaa !138
  %.not85 = icmp eq ptr %29, null
  br i1 %.not85, label %32, label %30

30:                                               ; preds = %27
  %31 = tail call i32 %1(ptr noundef nonnull %29, ptr noundef %2) #8
  %.not86 = icmp eq i32 %31, 0
  br i1 %.not86, label %32, label %39

32:                                               ; preds = %27, %30
  %33 = getelementptr inbounds nuw i8, ptr %0, i64 64
  %34 = load ptr, ptr %33, align 8, !tbaa !139
  %.not87 = icmp eq ptr %34, null
  br i1 %.not87, label %37, label %35

35:                                               ; preds = %32
  %36 = tail call i32 %1(ptr noundef nonnull %34, ptr noundef %2) #8
  %.not88 = icmp eq i32 %36, 0
  br i1 %.not88, label %37, label %39

37:                                               ; preds = %35, %32
  %38 = tail call i32 @PyObject_VisitManagedDict(ptr noundef nonnull %0, ptr noundef %1, ptr noundef %2) #8
  br label %39

39:                                               ; preds = %5, %37, %35, %30, %25, %20, %15, %10
  %.1 = phi i32 [ %6, %5 ], [ 0, %37 ], [ %36, %35 ], [ %31, %30 ], [ %26, %25 ], [ %21, %20 ], [ %16, %15 ], [ %11, %10 ]
  ret i32 %.1
}